; Function Attrs: nounwind sspstrong uwtable
define internal i32 @e1000e_post_load(ptr noundef %opaque, i32 %version_id) #0 {
entry:
  %_now.i.i = alloca %struct.timeval, align 8
  call void @llvm.lifetime.start.p0(i64 16, ptr nonnull %_now.i.i)
  %0 = load i32, ptr @trace_events_enabled_count, align 4
  %tobool.i.i = icmp ne i32 %0, 0
  %1 = load i16, ptr @_TRACE_E1000E_CB_POST_LOAD_DSTATE, align 2
  %tobool4.i.i = icmp ne i16 %1, 0
  %or.cond.i.i = select i1 %tobool.i.i, i1 %tobool4.i.i, i1 false
  br i1 %or.cond.i.i, label %land.lhs.true5.i.i, label %trace_e1000e_cb_post_load.exit

land.lhs.true5.i.i:                               ; preds = %entry
  %2 = load i32, ptr @qemu_loglevel, align 4
  %and.i.i.i = and i32 %2, 32768
  %cmp.i.not.i.i = icmp eq i32 %and.i.i.i, 0
  br i1 %cmp.i.not.i.i, label %trace_e1000e_cb_post_load.exit, label %if.then.i.i

if.then.i.i:                                      ; preds = %land.lhs.true5.i.i
  %3 = load i8, ptr @message_with_timestamp, align 1
  %tobool7.i.i = trunc i8 %3 to i1
  br i1 %tobool7.i.i, label %if.then8.i.i, label %if.else.i.i

if.then8.i.i:                                     ; preds = %if.then.i.i
  %call9.i.i = call i32 @gettimeofday(ptr noundef nonnull %_now.i.i, ptr noundef null) #9
  %call10.i.i = tail call i32 @qemu_get_thread_id() #9
  %4 = load i64, ptr %_now.i.i, align 8
  %tv_usec.i.i = getelementptr inbounds nuw i8, ptr %_now.i.i, i64 8
  %5 = load i64, ptr %tv_usec.i.i, align 8
  tail call void (ptr, ...) @qemu_log(ptr noundef nonnull @.str.83, i32 noundef %call10.i.i, i64 noundef %4, i64 noundef %5) #9
  br label %trace_e1000e_cb_post_load.exit

if.else.i.i:                                      ; preds = %if.then.i.i
  tail call void (ptr, ...) @qemu_log(ptr noundef nonnull @.str.84) #9
  br label %trace_e1000e_cb_post_load.exit

trace_e1000e_cb_post_load.exit:                   ; preds = %entry, %land.lhs.true5.i.i, %if.then8.i.i, %if.else.i.i
  call void @llvm.lifetime.end.p0(i64 16, ptr nonnull %_now.i.i)
  %subsys = getelementptr inbounds nuw i8, ptr %opaque, i64 11926
  %6 = load i16, ptr %subsys, align 2
  %subsys_used = getelementptr inbounds nuw i8, ptr %opaque, i64 11930
  %7 = load i16, ptr %subsys_used, align 2
  %cmp.not = icmp eq i16 %6, %7
  br i1 %cmp.not, label %lor.lhs.false, label %if.then

lor.lhs.false:                                    ; preds = %trace_e1000e_cb_post_load.exit
  %subsys_ven = getelementptr inbounds nuw i8, ptr %opaque, i64 11924
  %8 = load i16, ptr %subsys_ven, align 4
  %subsys_ven_used = getelementptr inbounds nuw i8, ptr %opaque, i64 11928
  %9 = load i16, ptr %subsys_ven_used, align 8
  %cmp5.not = icmp eq i16 %8, %9
  br i1 %cmp5.not, label %if.end, label %if.then

if.then:                                          ; preds = %lor.lhs.false, %trace_e1000e_cb_post_load.exit
  %10 = load ptr, ptr @stderr, align 8
  %11 = tail call i64 @fwrite(ptr nonnull @.str.82, i64 72, i64 1, ptr %10) #11
  br label %return

if.end:                                           ; preds = %lor.lhs.false
  %core = getelementptr inbounds nuw i8, ptr %opaque, i64 11936
  %call7 = tail call i32 @e1000e_core_post_load(ptr noundef nonnull %core) #9
  br label %return

return:                                           ; preds = %if.end, %if.then
  %retval.0 = phi i32 [ -1, %if.then ], [ %call7, %if.end ]
  ret i32 %retval.0
}